target datalayout = "e-m:e-p270:32:32-p271:32:32-p272:64:64-i64:64-i128:128-f80:128-n8:16:32:64-S128"
target triple = "x86_64-pc-linux-gnu"

@.str = private unnamed_addr constant [42 x i8] c"Internal error, IDCT permutation not set\0A\00", align 1

; Function Attrs: cold nounwind optsize uwtable
define void @ff_init_scantable_permutation(ptr noundef %0, i32 noundef %1) #0 {
  %3 = alloca ptr, align 8
  %4 = alloca i32, align 4
  %5 = alloca i32, align 4
  store ptr %0, ptr %3, align 8, !tbaa !4
  store i32 %1, ptr %4, align 4, !tbaa !9
  call void @llvm.lifetime.start.p0(i64 4, ptr %5) #5
  %6 = load i32, ptr %4, align 4, !tbaa !9
  switch i32 %6, label %90 [
    i32 0, label %7
    i32 1, label %22
    i32 3, label %46
    i32 4, label %66
  ]

7:                                                ; preds = %2
  store i32 0, ptr %5, align 4, !tbaa !9
  br label %8

8:                                                ; preds = %18, %7
  %9 = load i32, ptr %5, align 4, !tbaa !9
  %10 = icmp slt i32 %9, 64
  br i1 %10, label %11, label %21

11:                                               ; preds = %8
  %12 = load i32, ptr %5, align 4, !tbaa !9
  %13 = trunc i32 %12 to i8
  %14 = load ptr, ptr %3, align 8, !tbaa !4
  %15 = load i32, ptr %5, align 4, !tbaa !9
  %16 = sext i32 %15 to i64
  %17 = getelementptr inbounds i8, ptr %14, i64 %16
  store i8 %13, ptr %17, align 1, !tbaa !11
  br label %18

18:                                               ; preds = %11
  %19 = load i32, ptr %5, align 4, !tbaa !9
  %20 = add nsw i32 %19, 1
  store i32 %20, ptr %5, align 4, !tbaa !9
  br label %8, !llvm.loop !14

21:                                               ; preds = %8
  br label %91

22:                                               ; preds = %2
  store i32 0, ptr %5, align 4, !tbaa !9
  br label %23

23:                                               ; preds = %42, %22
  %24 = load i32, ptr %5, align 4, !tbaa !9
  %25 = icmp slt i32 %24, 64
  br i1 %25, label %26, label %45

26:                                               ; preds = %23
  %27 = load i32, ptr %5, align 4, !tbaa !9
  %28 = and i32 %27, 56
  %29 = load i32, ptr %5, align 4, !tbaa !9
  %30 = and i32 %29, 6
  %31 = ashr i32 %30, 1
  %32 = or i32 %28, %31
  %33 = load i32, ptr %5, align 4, !tbaa !9
  %34 = and i32 %33, 1
  %35 = shl i32 %34, 2
  %36 = or i32 %32, %35
  %37 = trunc i32 %36 to i8
  %38 = load ptr, ptr %3, align 8, !tbaa !4
  %39 = load i32, ptr %5, align 4, !tbaa !9
  %40 = sext i32 %39 to i64
  %41 = getelementptr inbounds i8, ptr %38, i64 %40
  store i8 %37, ptr %41, align 1, !tbaa !11
  br label %42

42:                                               ; preds = %26
  %43 = load i32, ptr %5, align 4, !tbaa !9
  %44 = add nsw i32 %43, 1
  store i32 %44, ptr %5, align 4, !tbaa !9
  br label %23, !llvm.loop !15

45:                                               ; preds = %23
  br label %91

46:                                               ; preds = %2
  store i32 0, ptr %5, align 4, !tbaa !9
  br label %47

47:                                               ; preds = %62, %46
  %48 = load i32, ptr %5, align 4, !tbaa !9
  %49 = icmp slt i32 %48, 64
  br i1 %49, label %50, label %65

50:                                               ; preds = %47
  %51 = load i32, ptr %5, align 4, !tbaa !9
  %52 = and i32 %51, 7
  %53 = shl i32 %52, 3
  %54 = load i32, ptr %5, align 4, !tbaa !9
  %55 = ashr i32 %54, 3
  %56 = or i32 %53, %55
  %57 = trunc i32 %56 to i8
  %58 = load ptr, ptr %3, align 8, !tbaa !4
  %59 = load i32, ptr %5, align 4, !tbaa !9
  %60 = sext i32 %59 to i64
  %61 = getelementptr inbounds i8, ptr %58, i64 %60
  store i8 %57, ptr %61, align 1, !tbaa !11
  br label %62

62:                                               ; preds = %50
  %63 = load i32, ptr %5, align 4, !tbaa !9
  %64 = add nsw i32 %63, 1
  store i32 %64, ptr %5, align 4, !tbaa !9
  br label %47, !llvm.loop !16

65:                                               ; preds = %47
  br label %91

66:                                               ; preds = %2
  store i32 0, ptr %5, align 4, !tbaa !9
  br label %67

67:                                               ; preds = %86, %66
  %68 = load i32, ptr %5, align 4, !tbaa !9
  %69 = icmp slt i32 %68, 64
  br i1 %69, label %70, label %89

70:                                               ; preds = %67
  %71 = load i32, ptr %5, align 4, !tbaa !9
  %72 = and i32 %71, 36
  %73 = load i32, ptr %5, align 4, !tbaa !9
  %74 = and i32 %73, 3
  %75 = shl i32 %74, 3
  %76 = or i32 %72, %75
  %77 = load i32, ptr %5, align 4, !tbaa !9
  %78 = ashr i32 %77, 3
  %79 = and i32 %78, 3
  %80 = or i32 %76, %79
  %81 = trunc i32 %80 to i8
  %82 = load ptr, ptr %3, align 8, !tbaa !4
  %83 = load i32, ptr %5, align 4, !tbaa !9
  %84 = sext i32 %83 to i64
  %85 = getelementptr inbounds i8, ptr %82, i64 %84
  store i8 %81, ptr %85, align 1, !tbaa !11
  br label %86

86:                                               ; preds = %70
  %87 = load i32, ptr %5, align 4, !tbaa !9
  %88 = add nsw i32 %87, 1
  store i32 %88, ptr %5, align 4, !tbaa !9
  br label %67, !llvm.loop !17

89:                                               ; preds = %67
  br label %91

90:                                               ; preds = %2
  call void (ptr, i32, ptr, ...) @av_log(ptr noundef null, i32 noundef 16, ptr noundef @.str)
  br label %91

91:                                               ; preds = %90, %89, %65, %45, %21
  call void @llvm.lifetime.end.p0(i64 4, ptr %5) #5
  ret void
}