; Function Attrs: cold nounwind optsize uwtable
define void @ff_init_scantable_permutation(ptr noundef writeonly captures(none) %0, i32 noundef %1) local_unnamed_addr #1 {
  switch i32 %1, label %32 [
    i32 0, label %.preheader
    i32 1, label %.preheader25
    i32 3, label %.preheader27
    i32 4, label %.preheader29
  ]

.preheader:                                       ; preds = %2, %.preheader
  %indvars.iv47 = phi i64 [ %indvars.iv.next48, %.preheader ], [ 0, %2 ]
  %3 = trunc i64 %indvars.iv47 to i8
  %4 = getelementptr inbounds nuw i8, ptr %0, i64 %indvars.iv47
  store i8 %3, ptr %4, align 1, !tbaa !4
  %indvars.iv.next48 = add nuw nsw i64 %indvars.iv47, 1
  %exitcond50.not = icmp eq i64 %indvars.iv.next48, 64
  br i1 %exitcond50.not, label %.loopexit, label %.preheader, !llvm.loop !9

.preheader25:                                     ; preds = %2, %.preheader25
  %indvars.iv43 = phi i64 [ %indvars.iv.next44, %.preheader25 ], [ 0, %2 ]
  %5 = trunc nuw nsw i64 %indvars.iv43 to i32
  %6 = and i32 %5, 56
  %7 = lshr i32 %5, 1
  %8 = and i32 %7, 3
  %9 = or disjoint i32 %8, %6
  %indvars.iv43.tr = trunc i64 %indvars.iv43 to i32
  %10 = shl i32 %indvars.iv43.tr, 2
  %11 = and i32 %10, 4
  %12 = or disjoint i32 %9, %11
  %13 = trunc nuw nsw i32 %12 to i8
  %14 = getelementptr inbounds nuw i8, ptr %0, i64 %indvars.iv43
  store i8 %13, ptr %14, align 1, !tbaa !4
  %indvars.iv.next44 = add nuw nsw i64 %indvars.iv43, 1
  %exitcond46.not = icmp eq i64 %indvars.iv.next44, 64
  br i1 %exitcond46.not, label %.loopexit, label %.preheader25, !llvm.loop !10

.preheader27:                                     ; preds = %2, %.preheader27
  %indvars.iv39 = phi i64 [ %indvars.iv.next40, %.preheader27 ], [ 0, %2 ]
  %indvars.iv39.tr = trunc i64 %indvars.iv39 to i32
  %15 = shl i32 %indvars.iv39.tr, 3
  %16 = and i32 %15, 56
  %17 = trunc nuw nsw i64 %indvars.iv39 to i32
  %18 = lshr i32 %17, 3
  %19 = or disjoint i32 %16, %18
  %20 = trunc nuw nsw i32 %19 to i8
  %21 = getelementptr inbounds nuw i8, ptr %0, i64 %indvars.iv39
  store i8 %20, ptr %21, align 1, !tbaa !4
  %indvars.iv.next40 = add nuw nsw i64 %indvars.iv39, 1
  %exitcond42.not = icmp eq i64 %indvars.iv.next40, 64
  br i1 %exitcond42.not, label %.loopexit, label %.preheader27, !llvm.loop !11

.preheader29:                                     ; preds = %2, %.preheader29
  %indvars.iv = phi i64 [ %indvars.iv.next, %.preheader29 ], [ 0, %2 ]
  %22 = trunc nuw nsw i64 %indvars.iv to i32
  %23 = and i32 %22, 36
  %indvars.iv.tr = trunc i64 %indvars.iv to i32
  %24 = shl i32 %indvars.iv.tr, 3
  %25 = and i32 %24, 24
  %26 = or disjoint i32 %25, %23
  %27 = lshr i32 %22, 3
  %28 = and i32 %27, 3
  %29 = or disjoint i32 %26, %28
  %30 = trunc nuw nsw i32 %29 to i8
  %31 = getelementptr inbounds nuw i8, ptr %0, i64 %indvars.iv
  store i8 %30, ptr %31, align 1, !tbaa !4
  %indvars.iv.next = add nuw nsw i64 %indvars.iv, 1
  %exitcond.not = icmp eq i64 %indvars.iv.next, 64
  br i1 %exitcond.not, label %.loopexit, label %.preheader29, !llvm.loop !12

32:                                               ; preds = %2
  tail call void (ptr, i32, ptr, ...) @av_log(ptr noundef null, i32 noundef 16, ptr noundef nonnull @.str) #7
  br label %.loopexit

.loopexit:                                        ; preds = %.preheader29, %.preheader27, %.preheader25, %.preheader, %32
  ret void
}